; Function Attrs: nounwind uwtable
define ptr @Dar_ManRewriteDefault(ptr noundef %0) local_unnamed_addr #0 {
  %2 = alloca %struct.Dar_RwrPar_t_, align 4
  call void @llvm.lifetime.start.p0(i64 40, ptr nonnull %2) #13
  call void @Dar_ManDefaultRwrParams(ptr noundef nonnull %2) #13
  %3 = call ptr @Aig_ManDupDfs(ptr noundef %0) #13
  %4 = call i32 @Dar_ManRewrite(ptr noundef %3, ptr noundef nonnull %2) #13
  %5 = call ptr @Aig_ManDupDfs(ptr noundef %3) #13
  call void @Aig_ManStop(ptr noundef %3) #13
  call void @llvm.lifetime.end.p0(i64 40, ptr nonnull %2) #13
  ret ptr %5
}